; Function Attrs: mustprogress ssp uwtable
define void @_ZNK6open3d8geometry9VoxelGrid29GetMinimalOrientedBoundingBoxEb(ptr dead_on_unwind noalias writable sret(%"class.open3d::geometry::OrientedBoundingBox") align 8 %0, ptr noundef nonnull align 8 dereferenceable(136) %1, i1 zeroext %2) unnamed_addr #4 align 2 personality ptr @__gxx_personality_v0 {
  %4 = alloca %"class.open3d::geometry::AxisAlignedBoundingBox", align 8
  call void @llvm.lifetime.start.p0(i64 120, ptr nonnull %4) #36
  %5 = load ptr, ptr %1, align 8, !tbaa !4
  %6 = getelementptr inbounds nuw i8, ptr %5, i64 56
  %7 = load ptr, ptr %6, align 8
  call void %7(ptr dead_on_unwind nonnull writable sret(%"class.open3d::geometry::AxisAlignedBoundingBox") align 8 %4, ptr noundef nonnull align 8 dereferenceable(136) %1)
  invoke void @_ZN6open3d8geometry19OrientedBoundingBox32CreateFromAxisAlignedBoundingBoxERKNS0_22AxisAlignedBoundingBoxE(ptr dead_on_unwind writable sret(%"class.open3d::geometry::OrientedBoundingBox") align 8 %0, ptr noundef nonnull align 8 dereferenceable(120) %4)
          to label %8 unwind label %18

8:                                                ; preds = %3
  store ptr getelementptr inbounds nuw inrange(-16, 32) (i8, ptr @_ZTVN6open3d8geometry8GeometryE, i64 16), ptr %4, align 8, !tbaa !4
  %9 = getelementptr inbounds nuw i8, ptr %4, i64 16
  %10 = load ptr, ptr %9, align 8, !tbaa !23
  %11 = getelementptr inbounds nuw i8, ptr %4, i64 32
  %12 = icmp eq ptr %10, %11
  br i1 %12, label %_ZNKSt7__cxx1112basic_stringIcSt11char_traitsIcESaIcEE11_M_is_localEv.exit.thread.i.i.i, label %_ZNKSt7__cxx1112basic_stringIcSt11char_traitsIcESaIcEE11_M_is_localEv.exit.i.i.i

_ZNKSt7__cxx1112basic_stringIcSt11char_traitsIcESaIcEE11_M_is_localEv.exit.thread.i.i.i: ; preds = %8
  %13 = getelementptr inbounds nuw i8, ptr %4, i64 24
  %14 = load i64, ptr %13, align 8, !tbaa !27
  %15 = icmp ult i64 %14, 16
  call void @llvm.assume(i1 %15)
  br label %_ZN6open3d8geometry8GeometryD2Ev.exit

_ZNKSt7__cxx1112basic_stringIcSt11char_traitsIcESaIcEE11_M_is_localEv.exit.i.i.i: ; preds = %8
  %16 = load i64, ptr %11, align 8, !tbaa !28
  %17 = add i64 %16, 1
  call void @_ZdlPvm(ptr noundef %10, i64 noundef %17) #35
  br label %_ZN6open3d8geometry8GeometryD2Ev.exit

_ZN6open3d8geometry8GeometryD2Ev.exit:            ; preds = %_ZNKSt7__cxx1112basic_stringIcSt11char_traitsIcESaIcEE11_M_is_localEv.exit.thread.i.i.i, %_ZNKSt7__cxx1112basic_stringIcSt11char_traitsIcESaIcEE11_M_is_localEv.exit.i.i.i
  call void @llvm.lifetime.end.p0(i64 120, ptr nonnull %4) #36
  ret void

18:                                               ; preds = %3
  %19 = landingpad { ptr, i32 }
          cleanup
  store ptr getelementptr inbounds nuw inrange(-16, 32) (i8, ptr @_ZTVN6open3d8geometry8GeometryE, i64 16), ptr %4, align 8, !tbaa !4
  %20 = getelementptr inbounds nuw i8, ptr %4, i64 16
  %21 = load ptr, ptr %20, align 8, !tbaa !23
  %22 = getelementptr inbounds nuw i8, ptr %4, i64 32
  %23 = icmp eq ptr %21, %22
  br i1 %23, label %_ZNKSt7__cxx1112basic_stringIcSt11char_traitsIcESaIcEE11_M_is_localEv.exit.thread.i.i.i3, label %_ZNKSt7__cxx1112basic_stringIcSt11char_traitsIcESaIcEE11_M_is_localEv.exit.i.i.i2

_ZNKSt7__cxx1112basic_stringIcSt11char_traitsIcESaIcEE11_M_is_localEv.exit.thread.i.i.i3: ; preds = %18
  %24 = getelementptr inbounds nuw i8, ptr %4, i64 24
  %25 = load i64, ptr %24, align 8, !tbaa !27
  %26 = icmp ult i64 %25, 16
  call void @llvm.assume(i1 %26)
  br label %_ZN6open3d8geometry8GeometryD2Ev.exit4

_ZNKSt7__cxx1112basic_stringIcSt11char_traitsIcESaIcEE11_M_is_localEv.exit.i.i.i2: ; preds = %18
  %27 = load i64, ptr %22, align 8, !tbaa !28
  %28 = add i64 %27, 1
  call void @_ZdlPvm(ptr noundef %21, i64 noundef %28) #35
  br label %_ZN6open3d8geometry8GeometryD2Ev.exit4

_ZN6open3d8geometry8GeometryD2Ev.exit4:           ; preds = %_ZNKSt7__cxx1112basic_stringIcSt11char_traitsIcESaIcEE11_M_is_localEv.exit.thread.i.i.i3, %_ZNKSt7__cxx1112basic_stringIcSt11char_traitsIcESaIcEE11_M_is_localEv.exit.i.i.i2
  call void @llvm.lifetime.end.p0(i64 120, ptr nonnull %4) #36
  resume { ptr, i32 } %19
}